target datalayout = "e-m:e-p270:32:32-p271:32:32-p272:64:64-i64:64-i128:128-f80:128-n8:16:32:64-S128"
target triple = "x86_64-pc-linux-gnu"

%"class.net::IPEndPoint" = type <{ %"class.net::IPAddress", i16, [6 x i8] }>
%"class.net::IPAddress" = type { %"class.std::vector" }
%"class.std::vector" = type { %"struct.std::_Vector_base" }
%"struct.std::_Vector_base" = type { %"struct.std::_Vector_base<unsigned char, std::allocator<unsigned char>>::_Vector_impl" }
%"struct.std::_Vector_base<unsigned char, std::allocator<unsigned char>>::_Vector_impl" = type { %"struct.std::_Vector_base<unsigned char, std::allocator<unsigned char>>::_Vector_impl_data" }
%"struct.std::_Vector_base<unsigned char, std::allocator<unsigned char>>::_Vector_impl_data" = type { ptr, ptr, ptr }
%"class.std::tuple" = type { %"struct.std::_Tuple_impl" }
%"struct.std::_Tuple_impl" = type { %"struct.std::_Tuple_impl.4", %"struct.std::_Head_base.5" }
%"struct.std::_Tuple_impl.4" = type { %"struct.std::_Head_base" }
%"struct.std::_Head_base" = type { ptr }
%"struct.std::_Head_base.5" = type { ptr }

; Function Attrs: mustprogress nounwind uwtable
define linkonce_odr noundef nonnull align 2 dereferenceable(2) ptr @_ZNSt10_Head_baseILm1ERKtLb0EE7_M_headERKS2_(ptr noundef nonnull align 8 dereferenceable(8) %0) #2 comdat align 2 {
  %2 = alloca ptr, align 8
  store ptr %0, ptr %2, align 8, !tbaa !82
  %3 = load ptr, ptr %2, align 8, !tbaa !82
  %4 = getelementptr inbounds nuw %"struct.std::_Head_base", ptr %3, i32 0, i32 0
  %5 = load ptr, ptr %4, align 8, !tbaa !84
  ret ptr %5
}

; Function Attrs: mustprogress nounwind uwtable
define linkonce_odr noundef nonnull align 2 dereferenceable(2) ptr @_ZNSt11_Tuple_implILm1EJRKtEE7_M_headERKS2_(ptr noundef nonnull align 8 dereferenceable(8) %0) #2 comdat align 2 {
  %2 = alloca ptr, align 8
  store ptr %0, ptr %2, align 8, !tbaa !80
  %3 = load ptr, ptr %2, align 8, !tbaa !80
  %4 = call noundef nonnull align 2 dereferenceable(2) ptr @_ZNSt10_Head_baseILm1ERKtLb0EE7_M_headERKS2_(ptr noundef nonnull align 8 dereferenceable(8) %3) #15
  ret ptr %4
}

; Function Attrs: mustprogress nounwind uwtable
define linkonce_odr noundef nonnull align 8 dereferenceable(24) ptr @_ZNSt10_Head_baseILm0ERKN3net9IPAddressELb0EE7_M_headERKS4_(ptr noundef nonnull align 8 dereferenceable(8) %0) #2 comdat align 2 {
  %2 = alloca ptr, align 8
  store ptr %0, ptr %2, align 8, !tbaa !76
  %3 = load ptr, ptr %2, align 8, !tbaa !76
  %4 = getelementptr inbounds nuw %"struct.std::_Head_base.5", ptr %3, i32 0, i32 0
  %5 = load ptr, ptr %4, align 8, !tbaa !78
  ret ptr %5
}

; Function Attrs: mustprogress nounwind uwtable
define linkonce_odr noundef nonnull align 2 dereferenceable(2) ptr @_ZSt12__get_helperILm1ERKtJEERKT0_RKSt11_Tuple_implIXT_EJS2_DpT1_EE(ptr noundef nonnull align 8 dereferenceable(8) %0) #2 comdat {
  %2 = alloca ptr, align 8
  store ptr %0, ptr %2, align 8, !tbaa !80
  %3 = load ptr, ptr %2, align 8, !tbaa !80
  %4 = call noundef nonnull align 2 dereferenceable(2) ptr @_ZNSt11_Tuple_implILm1EJRKtEE7_M_headERKS2_(ptr noundef nonnull align 8 dereferenceable(8) %3) #15
  ret ptr %4
}

; Function Attrs: mustprogress nounwind uwtable
define linkonce_odr noundef nonnull align 8 dereferenceable(24) ptr @_ZNSt11_Tuple_implILm0EJRKN3net9IPAddressERKtEE7_M_headERKS6_(ptr noundef nonnull align 8 dereferenceable(16) %0) #2 comdat align 2 {
  %2 = alloca ptr, align 8
  store ptr %0, ptr %2, align 8, !tbaa !74
  %3 = load ptr, ptr %2, align 8, !tbaa !74
  %4 = getelementptr inbounds i8, ptr %3, i64 8
  %5 = call noundef nonnull align 8 dereferenceable(24) ptr @_ZNSt10_Head_baseILm0ERKN3net9IPAddressELb0EE7_M_headERKS4_(ptr noundef nonnull align 8 dereferenceable(8) %4) #15
  ret ptr %5
}

; Function Attrs: mustprogress nounwind uwtable
define linkonce_odr void @_ZNSt10_Head_baseILm1ERKtLb0EEC2ES1_(ptr noundef nonnull align 8 dereferenceable(8) %0, ptr noundef nonnull align 2 dereferenceable(2) %1) unnamed_addr #2 comdat align 2 {
  %3 = alloca ptr, align 8
  %4 = alloca ptr, align 8
  store ptr %0, ptr %3, align 8, !tbaa !82
  store ptr %1, ptr %4, align 8, !tbaa !48
  %5 = load ptr, ptr %3, align 8
  %6 = getelementptr inbounds nuw %"struct.std::_Head_base", ptr %5, i32 0, i32 0
  %7 = load ptr, ptr %4, align 8, !tbaa !48
  store ptr %7, ptr %6, align 8, !tbaa !48
  ret void
}

; Function Attrs: mustprogress nounwind uwtable
define linkonce_odr noundef zeroext i1 @_ZNSt15__tuple_compareISt5tupleIJRKN3net9IPAddressERKtEES7_Lm2ELm2EE6__lessERKS7_SA_(ptr noundef nonnull align 8 dereferenceable(16) %0, ptr noundef nonnull align 8 dereferenceable(16) %1) #2 comdat align 2 {
  %3 = alloca ptr, align 8
  %4 = alloca ptr, align 8
  store ptr %0, ptr %3, align 8, !tbaa !52
  store ptr %1, ptr %4, align 8, !tbaa !52
  ret i1 false
}

; Function Attrs: mustprogress nounwind uwtable
define linkonce_odr noundef nonnull align 2 dereferenceable(2) ptr @_ZSt3getILm1EJRKN3net9IPAddressERKtEERKNSt13tuple_elementIXT_ESt5tupleIJDpT0_EEE4typeERKSA_(ptr noundef nonnull align 8 dereferenceable(16) %0) #2 comdat {
  %2 = alloca ptr, align 8
  store ptr %0, ptr %2, align 8, !tbaa !52
  %3 = load ptr, ptr %2, align 8, !tbaa !52
  %4 = call noundef nonnull align 2 dereferenceable(2) ptr @_ZSt12__get_helperILm1ERKtJEERKT0_RKSt11_Tuple_implIXT_EJS2_DpT1_EE(ptr noundef nonnull align 8 dereferenceable(8) %3) #15
  ret ptr %4
}

; Function Attrs: mustprogress nounwind uwtable
define linkonce_odr noundef nonnull align 8 dereferenceable(24) ptr @_ZSt12__get_helperILm0ERKN3net9IPAddressEJRKtEERKT0_RKSt11_Tuple_implIXT_EJS6_DpT1_EE(ptr noundef nonnull align 8 dereferenceable(16) %0) #2 comdat {
  %2 = alloca ptr, align 8
  store ptr %0, ptr %2, align 8, !tbaa !74
  %3 = load ptr, ptr %2, align 8, !tbaa !74
  %4 = call noundef nonnull align 8 dereferenceable(24) ptr @_ZNSt11_Tuple_implILm0EJRKN3net9IPAddressERKtEE7_M_headERKS6_(ptr noundef nonnull align 8 dereferenceable(16) %3) #15
  ret ptr %4
}

; Function Attrs: mustprogress nounwind uwtable
define linkonce_odr void @_ZNSt10_Head_baseILm0ERKN3net9IPAddressELb0EEC2ES3_(ptr noundef nonnull align 8 dereferenceable(8) %0, ptr noundef nonnull align 8 dereferenceable(24) %1) unnamed_addr #2 comdat align 2 {
  %3 = alloca ptr, align 8
  %4 = alloca ptr, align 8
  store ptr %0, ptr %3, align 8, !tbaa !76
  store ptr %1, ptr %4, align 8, !tbaa !17
  %5 = load ptr, ptr %3, align 8
  %6 = getelementptr inbounds nuw %"struct.std::_Head_base.5", ptr %5, i32 0, i32 0
  %7 = load ptr, ptr %4, align 8, !tbaa !17
  store ptr %7, ptr %6, align 8, !tbaa !17
  ret void
}

; Function Attrs: mustprogress uwtable
define linkonce_odr void @_ZNSt11_Tuple_implILm1EJRKtEEC2ES1_(ptr noundef nonnull align 8 dereferenceable(8) %0, ptr noundef nonnull align 2 dereferenceable(2) %1) unnamed_addr #0 comdat align 2 {
  %3 = alloca ptr, align 8
  %4 = alloca ptr, align 8
  store ptr %0, ptr %3, align 8, !tbaa !80
  store ptr %1, ptr %4, align 8, !tbaa !48
  %5 = load ptr, ptr %3, align 8
  %6 = load ptr, ptr %4, align 8, !tbaa !48
  call void @_ZNSt10_Head_baseILm1ERKtLb0EEC2ES1_(ptr noundef nonnull align 8 dereferenceable(8) %5, ptr noundef nonnull align 2 dereferenceable(2) %6)
  ret void
}

; Function Attrs: mustprogress uwtable
define linkonce_odr noundef zeroext i1 @_ZNSt15__tuple_compareISt5tupleIJRKN3net9IPAddressERKtEES7_Lm1ELm2EE6__lessERKS7_SA_(ptr noundef nonnull align 8 dereferenceable(16) %0, ptr noundef nonnull align 8 dereferenceable(16) %1) #0 comdat align 2 {
  %3 = alloca ptr, align 8
  %4 = alloca ptr, align 8
  store ptr %0, ptr %3, align 8, !tbaa !52
  store ptr %1, ptr %4, align 8, !tbaa !52
  %5 = load ptr, ptr %3, align 8, !tbaa !52
  %6 = call noundef nonnull align 2 dereferenceable(2) ptr @_ZSt3getILm1EJRKN3net9IPAddressERKtEERKNSt13tuple_elementIXT_ESt5tupleIJDpT0_EEE4typeERKSA_(ptr noundef nonnull align 8 dereferenceable(16) %5) #15
  %7 = load i16, ptr %6, align 2, !tbaa !19
  %8 = zext i16 %7 to i32
  %9 = load ptr, ptr %4, align 8, !tbaa !52
  %10 = call noundef nonnull align 2 dereferenceable(2) ptr @_ZSt3getILm1EJRKN3net9IPAddressERKtEERKNSt13tuple_elementIXT_ESt5tupleIJDpT0_EEE4typeERKSA_(ptr noundef nonnull align 8 dereferenceable(16) %9) #15
  %11 = load i16, ptr %10, align 2, !tbaa !19
  %12 = zext i16 %11 to i32
  %13 = icmp slt i32 %8, %12
  br i1 %13, label %30, label %14

14:                                               ; preds = %2
  %15 = load ptr, ptr %4, align 8, !tbaa !52
  %16 = call noundef nonnull align 2 dereferenceable(2) ptr @_ZSt3getILm1EJRKN3net9IPAddressERKtEERKNSt13tuple_elementIXT_ESt5tupleIJDpT0_EEE4typeERKSA_(ptr noundef nonnull align 8 dereferenceable(16) %15) #15
  %17 = load i16, ptr %16, align 2, !tbaa !19
  %18 = zext i16 %17 to i32
  %19 = load ptr, ptr %3, align 8, !tbaa !52
  %20 = call noundef nonnull align 2 dereferenceable(2) ptr @_ZSt3getILm1EJRKN3net9IPAddressERKtEERKNSt13tuple_elementIXT_ESt5tupleIJDpT0_EEE4typeERKSA_(ptr noundef nonnull align 8 dereferenceable(16) %19) #15
  %21 = load i16, ptr %20, align 2, !tbaa !19
  %22 = zext i16 %21 to i32
  %23 = icmp slt i32 %18, %22
  br i1 %23, label %28, label %24

24:                                               ; preds = %14
  %25 = load ptr, ptr %3, align 8, !tbaa !52
  %26 = load ptr, ptr %4, align 8, !tbaa !52
  %27 = call noundef zeroext i1 @_ZNSt15__tuple_compareISt5tupleIJRKN3net9IPAddressERKtEES7_Lm2ELm2EE6__lessERKS7_SA_(ptr noundef nonnull align 8 dereferenceable(16) %25, ptr noundef nonnull align 8 dereferenceable(16) %26)
  br label %28

28:                                               ; preds = %24, %14
  %29 = phi i1 [ false, %14 ], [ %27, %24 ]
  br label %30

30:                                               ; preds = %28, %2
  %31 = phi i1 [ true, %2 ], [ %29, %28 ]
  ret i1 %31
}

; Function Attrs: mustprogress nounwind uwtable
define linkonce_odr noundef nonnull align 8 dereferenceable(24) ptr @_ZSt3getILm0EJRKN3net9IPAddressERKtEERKNSt13tuple_elementIXT_ESt5tupleIJDpT0_EEE4typeERKSA_(ptr noundef nonnull align 8 dereferenceable(16) %0) #2 comdat {
  %2 = alloca ptr, align 8
  store ptr %0, ptr %2, align 8, !tbaa !52
  %3 = load ptr, ptr %2, align 8, !tbaa !52
  %4 = call noundef nonnull align 8 dereferenceable(24) ptr @_ZSt12__get_helperILm0ERKN3net9IPAddressEJRKtEERKT0_RKSt11_Tuple_implIXT_EJS6_DpT1_EE(ptr noundef nonnull align 8 dereferenceable(16) %3) #15
  ret ptr %4
}

; Function Attrs: noinline noreturn nounwind uwtable
define linkonce_odr hidden void @__clang_call_terminate(ptr noundef %0) #8 comdat {
  %2 = call ptr @__cxa_begin_catch(ptr %0) #15
  call void @_ZSt9terminatev() #17
  unreachable
}

; Function Attrs: mustprogress uwtable
define linkonce_odr void @_ZNSt11_Tuple_implILm0EJRKN3net9IPAddressERKtEEC2ES3_S5_(ptr noundef nonnull align 8 dereferenceable(16) %0, ptr noundef nonnull align 8 dereferenceable(24) %1, ptr noundef nonnull align 2 dereferenceable(2) %2) unnamed_addr #0 comdat align 2 {
  %4 = alloca ptr, align 8
  %5 = alloca ptr, align 8
  %6 = alloca ptr, align 8
  store ptr %0, ptr %4, align 8, !tbaa !74
  store ptr %1, ptr %5, align 8, !tbaa !17
  store ptr %2, ptr %6, align 8, !tbaa !48
  %7 = load ptr, ptr %4, align 8
  %8 = load ptr, ptr %6, align 8, !tbaa !48
  call void @_ZNSt11_Tuple_implILm1EJRKtEEC2ES1_(ptr noundef nonnull align 8 dereferenceable(8) %7, ptr noundef nonnull align 2 dereferenceable(2) %8)
  %9 = getelementptr inbounds i8, ptr %7, i64 8
  %10 = load ptr, ptr %5, align 8, !tbaa !17
  call void @_ZNSt10_Head_baseILm0ERKN3net9IPAddressELb0EEC2ES3_(ptr noundef nonnull align 8 dereferenceable(8) %9, ptr noundef nonnull align 8 dereferenceable(24) %10)
  ret void
}

; Function Attrs: mustprogress uwtable
define linkonce_odr noundef zeroext i1 @_ZNSt15__tuple_compareISt5tupleIJRKN3net9IPAddressERKtEES7_Lm0ELm2EE6__lessERKS7_SA_(ptr noundef nonnull align 8 dereferenceable(16) %0, ptr noundef nonnull align 8 dereferenceable(16) %1) #0 comdat align 2 {
  %3 = alloca ptr, align 8
  %4 = alloca ptr, align 8
  store ptr %0, ptr %3, align 8, !tbaa !52
  store ptr %1, ptr %4, align 8, !tbaa !52
  %5 = load ptr, ptr %3, align 8, !tbaa !52
  %6 = call noundef nonnull align 8 dereferenceable(24) ptr @_ZSt3getILm0EJRKN3net9IPAddressERKtEERKNSt13tuple_elementIXT_ESt5tupleIJDpT0_EEE4typeERKSA_(ptr noundef nonnull align 8 dereferenceable(16) %5) #15
  %7 = load ptr, ptr %4, align 8, !tbaa !52
  %8 = call noundef nonnull align 8 dereferenceable(24) ptr @_ZSt3getILm0EJRKN3net9IPAddressERKtEERKNSt13tuple_elementIXT_ESt5tupleIJDpT0_EEE4typeERKSA_(ptr noundef nonnull align 8 dereferenceable(16) %7) #15
  %9 = call noundef zeroext i1 @_ZNK3net9IPAddressltERKS0_(ptr noundef nonnull align 8 dereferenceable(24) %6, ptr noundef nonnull align 8 dereferenceable(24) %8)
  br i1 %9, label %22, label %10

10:                                               ; preds = %2
  %11 = load ptr, ptr %4, align 8, !tbaa !52
  %12 = call noundef nonnull align 8 dereferenceable(24) ptr @_ZSt3getILm0EJRKN3net9IPAddressERKtEERKNSt13tuple_elementIXT_ESt5tupleIJDpT0_EEE4typeERKSA_(ptr noundef nonnull align 8 dereferenceable(16) %11) #15
  %13 = load ptr, ptr %3, align 8, !tbaa !52
  %14 = call noundef nonnull align 8 dereferenceable(24) ptr @_ZSt3getILm0EJRKN3net9IPAddressERKtEERKNSt13tuple_elementIXT_ESt5tupleIJDpT0_EEE4typeERKSA_(ptr noundef nonnull align 8 dereferenceable(16) %13) #15
  %15 = call noundef zeroext i1 @_ZNK3net9IPAddressltERKS0_(ptr noundef nonnull align 8 dereferenceable(24) %12, ptr noundef nonnull align 8 dereferenceable(24) %14)
  br i1 %15, label %20, label %16

16:                                               ; preds = %10
  %17 = load ptr, ptr %3, align 8, !tbaa !52
  %18 = load ptr, ptr %4, align 8, !tbaa !52
  %19 = call noundef zeroext i1 @_ZNSt15__tuple_compareISt5tupleIJRKN3net9IPAddressERKtEES7_Lm1ELm2EE6__lessERKS7_SA_(ptr noundef nonnull align 8 dereferenceable(16) %17, ptr noundef nonnull align 8 dereferenceable(16) %18)
  br label %20

20:                                               ; preds = %16, %10
  %21 = phi i1 [ false, %10 ], [ %19, %16 ]
  br label %22

22:                                               ; preds = %20, %2
  %23 = phi i1 [ true, %2 ], [ %21, %20 ]
  ret i1 %23
}

; Function Attrs: mustprogress nounwind uwtable
define linkonce_odr void @_ZNSt5tupleIJRKN3net9IPAddressERKtEEC2ILb1ETnNSt9enable_ifIXclsr4_TCCIXT_EEE29__is_implicitly_constructibleIS3_S5_EEEbE4typeELb1EEES3_S5_(ptr noundef nonnull align 8 dereferenceable(16) %0, ptr noundef nonnull align 8 dereferenceable(24) %1, ptr noundef nonnull align 2 dereferenceable(2) %2) unnamed_addr #2 comdat align 2 personality ptr @__gxx_personality_v0 {
  %4 = alloca ptr, align 8
  %5 = alloca ptr, align 8
  %6 = alloca ptr, align 8
  store ptr %0, ptr %4, align 8, !tbaa !52
  store ptr %1, ptr %5, align 8, !tbaa !17
  store ptr %2, ptr %6, align 8, !tbaa !48
  %7 = load ptr, ptr %4, align 8
  %8 = load ptr, ptr %5, align 8, !tbaa !17
  %9 = load ptr, ptr %6, align 8, !tbaa !48
  invoke void @_ZNSt11_Tuple_implILm0EJRKN3net9IPAddressERKtEEC2ES3_S5_(ptr noundef nonnull align 8 dereferenceable(16) %7, ptr noundef nonnull align 8 dereferenceable(24) %8, ptr noundef nonnull align 2 dereferenceable(2) %9)
          to label %10 unwind label %11

10:                                               ; preds = %3
  ret void

11:                                               ; preds = %3
  %12 = landingpad { ptr, i32 }
          catch ptr null
  %13 = extractvalue { ptr, i32 } %12, 0
  call void @__clang_call_terminate(ptr %13) #17
  unreachable
}

; Function Attrs: mustprogress nounwind uwtable
define linkonce_odr noundef i64 @_ZNKSt6vectorIhSaIhEE4sizeEv(ptr noundef nonnull align 8 dereferenceable(24) %0) #2 comdat align 2 {
  %2 = alloca ptr, align 8
  store ptr %0, ptr %2, align 8, !tbaa !38
  %3 = load ptr, ptr %2, align 8
  %4 = getelementptr inbounds nuw %"struct.std::_Vector_base", ptr %3, i32 0, i32 0
  %5 = getelementptr inbounds nuw %"struct.std::_Vector_base<unsigned char, std::allocator<unsigned char>>::_Vector_impl_data", ptr %4, i32 0, i32 1
  %6 = load ptr, ptr %5, align 8, !tbaa !54
  %7 = getelementptr inbounds nuw %"struct.std::_Vector_base", ptr %3, i32 0, i32 0
  %8 = getelementptr inbounds nuw %"struct.std::_Vector_base<unsigned char, std::allocator<unsigned char>>::_Vector_impl_data", ptr %7, i32 0, i32 0
  %9 = load ptr, ptr %8, align 8, !tbaa !40
  %10 = ptrtoint ptr %6 to i64
  %11 = ptrtoint ptr %9 to i64
  %12 = sub i64 %10, %11
  ret i64 %12
}

; Function Attrs: mustprogress uwtable
define linkonce_odr noundef zeroext i1 @_ZStltIJRKN3net9IPAddressERKtEJS3_S5_EEbRKSt5tupleIJDpT_EERKS6_IJDpT0_EE(ptr noundef nonnull align 8 dereferenceable(16) %0, ptr noundef nonnull align 8 dereferenceable(16) %1) #0 comdat {
  %3 = alloca ptr, align 8
  %4 = alloca ptr, align 8
  store ptr %0, ptr %3, align 8, !tbaa !52
  store ptr %1, ptr %4, align 8, !tbaa !52
  %5 = load ptr, ptr %3, align 8, !tbaa !52
  %6 = load ptr, ptr %4, align 8, !tbaa !52
  %7 = call noundef zeroext i1 @_ZNSt15__tuple_compareISt5tupleIJRKN3net9IPAddressERKtEES7_Lm0ELm2EE6__lessERKS7_SA_(ptr noundef nonnull align 8 dereferenceable(16) %5, ptr noundef nonnull align 8 dereferenceable(16) %6)
  ret i1 %7
}

; Function Attrs: mustprogress nounwind uwtable
define linkonce_odr void @_ZSt3tieIJKN3net9IPAddressEKtEESt5tupleIJDpRT_EES7_(ptr dead_on_unwind noalias writable sret(%"class.std::tuple") align 8 %0, ptr noundef nonnull align 8 dereferenceable(24) %1, ptr noundef nonnull align 2 dereferenceable(2) %2) #2 comdat {
  %4 = alloca ptr, align 8
  %5 = alloca ptr, align 8
  %6 = alloca ptr, align 8
  store ptr %0, ptr %4, align 8
  store ptr %1, ptr %5, align 8, !tbaa !17
  store ptr %2, ptr %6, align 8, !tbaa !48
  %7 = load ptr, ptr %5, align 8, !tbaa !17
  %8 = load ptr, ptr %6, align 8, !tbaa !48
  call void @_ZNSt5tupleIJRKN3net9IPAddressERKtEEC2ILb1ETnNSt9enable_ifIXclsr4_TCCIXT_EEE29__is_implicitly_constructibleIS3_S5_EEEbE4typeELb1EEES3_S5_(ptr noundef nonnull align 8 dereferenceable(16) %0, ptr noundef nonnull align 8 dereferenceable(24) %7, ptr noundef nonnull align 2 dereferenceable(2) %8) #15
  ret void
}

; Function Attrs: mustprogress nounwind uwtable
define linkonce_odr noundef i64 @_ZNK3net9IPAddress4sizeEv(ptr noundef nonnull align 8 dereferenceable(24) %0) #2 comdat align 2 {
  %2 = alloca ptr, align 8
  store ptr %0, ptr %2, align 8, !tbaa !17
  %3 = load ptr, ptr %2, align 8
  %4 = getelementptr inbounds nuw %"class.net::IPAddress", ptr %3, i32 0, i32 0
  %5 = call noundef i64 @_ZNKSt6vectorIhSaIhEE4sizeEv(ptr noundef nonnull align 8 dereferenceable(24) %4) #15
  ret i64 %5
}

; Function Attrs: mustprogress uwtable
define noundef zeroext i1 @_ZNK3net10IPEndPointltERKS0_(ptr noundef nonnull align 8 dereferenceable(26) %0, ptr noundef nonnull align 8 dereferenceable(26) %1) #0 align 2 {
  %3 = alloca i1, align 1
  %4 = alloca ptr, align 8
  %5 = alloca ptr, align 8
  %6 = alloca %"class.std::tuple", align 8
  %7 = alloca %"class.std::tuple", align 8
  store ptr %0, ptr %4, align 8, !tbaa !3
  store ptr %1, ptr %5, align 8, !tbaa !3
  %8 = load ptr, ptr %4, align 8
  %9 = getelementptr inbounds nuw %"class.net::IPEndPoint", ptr %8, i32 0, i32 0
  %10 = call noundef i64 @_ZNK3net9IPAddress4sizeEv(ptr noundef nonnull align 8 dereferenceable(24) %9)
  %11 = load ptr, ptr %5, align 8, !tbaa !3
  %12 = getelementptr inbounds nuw %"class.net::IPEndPoint", ptr %11, i32 0, i32 0
  %13 = call noundef i64 @_ZNK3net9IPAddress4sizeEv(ptr noundef nonnull align 8 dereferenceable(24) %12)
  %14 = icmp ne i64 %10, %13
  br i1 %14, label %15, label %22

15:                                               ; preds = %2
  %16 = getelementptr inbounds nuw %"class.net::IPEndPoint", ptr %8, i32 0, i32 0
  %17 = call noundef i64 @_ZNK3net9IPAddress4sizeEv(ptr noundef nonnull align 8 dereferenceable(24) %16)
  %18 = load ptr, ptr %5, align 8, !tbaa !3
  %19 = getelementptr inbounds nuw %"class.net::IPEndPoint", ptr %18, i32 0, i32 0
  %20 = call noundef i64 @_ZNK3net9IPAddress4sizeEv(ptr noundef nonnull align 8 dereferenceable(24) %19)
  %21 = icmp ult i64 %17, %20
  store i1 %21, ptr %3, align 1
  br label %30

22:                                               ; preds = %2
  call void @llvm.lifetime.start.p0(i64 16, ptr %6) #15
  %23 = getelementptr inbounds nuw %"class.net::IPEndPoint", ptr %8, i32 0, i32 0
  %24 = getelementptr inbounds nuw %"class.net::IPEndPoint", ptr %8, i32 0, i32 1
  call void @_ZSt3tieIJKN3net9IPAddressEKtEESt5tupleIJDpRT_EES7_(ptr dead_on_unwind writable sret(%"class.std::tuple") align 8 %6, ptr noundef nonnull align 8 dereferenceable(24) %23, ptr noundef nonnull align 2 dereferenceable(2) %24) #15
  call void @llvm.lifetime.start.p0(i64 16, ptr %7) #15
  %25 = load ptr, ptr %5, align 8, !tbaa !3
  %26 = getelementptr inbounds nuw %"class.net::IPEndPoint", ptr %25, i32 0, i32 0
  %27 = load ptr, ptr %5, align 8, !tbaa !3
  %28 = getelementptr inbounds nuw %"class.net::IPEndPoint", ptr %27, i32 0, i32 1
  call void @_ZSt3tieIJKN3net9IPAddressEKtEESt5tupleIJDpRT_EES7_(ptr dead_on_unwind writable sret(%"class.std::tuple") align 8 %7, ptr noundef nonnull align 8 dereferenceable(24) %26, ptr noundef nonnull align 2 dereferenceable(2) %28) #15
  %29 = call noundef zeroext i1 @_ZStltIJRKN3net9IPAddressERKtEJS3_S5_EEbRKSt5tupleIJDpT_EERKS6_IJDpT0_EE(ptr noundef nonnull align 8 dereferenceable(16) %6, ptr noundef nonnull align 8 dereferenceable(16) %7)
  store i1 %29, ptr %3, align 1
  call void @llvm.lifetime.end.p0(i64 16, ptr %7) #15
  call void @llvm.lifetime.end.p0(i64 16, ptr %6) #15
  br label %30

30:                                               ; preds = %22, %15
  %31 = load i1, ptr %3, align 1
  ret i1 %31
}