; Function Attrs: mustprogress uwtable
define noundef zeroext i1 @_ZNK3net10IPEndPointltERKS0_(ptr noundef nonnull align 8 dereferenceable(26) %0, ptr noundef nonnull align 8 dereferenceable(26) %1) local_unnamed_addr #0 align 2 personality ptr @__gxx_personality_v0 {
  %3 = getelementptr inbounds nuw i8, ptr %0, i64 8
  %4 = load ptr, ptr %3, align 8, !tbaa !15
  %5 = load ptr, ptr %0, align 8, !tbaa !16
  %6 = ptrtoint ptr %4 to i64
  %7 = ptrtoint ptr %5 to i64
  %8 = sub i64 %6, %7
  %9 = getelementptr inbounds nuw i8, ptr %1, i64 8
  %10 = load ptr, ptr %9, align 8, !tbaa !15
  %11 = load ptr, ptr %1, align 8, !tbaa !16
  %12 = ptrtoint ptr %10 to i64
  %13 = ptrtoint ptr %11 to i64
  %14 = sub i64 %12, %13
  %.not = icmp eq i64 %8, %14
  br i1 %.not, label %17, label %15

15:                                               ; preds = %2
  %16 = icmp ult i64 %8, %14
  br label %_ZStltIJRKN3net9IPAddressERKtEJS3_S5_EEbRKSt5tupleIJDpT_EERKS6_IJDpT0_EE.exit

17:                                               ; preds = %2
  %18 = getelementptr inbounds nuw i8, ptr %0, i64 24
  %19 = getelementptr inbounds nuw i8, ptr %1, i64 24
  %20 = tail call noundef zeroext i1 @_ZNK3net9IPAddressltERKS0_(ptr noundef nonnull align 8 dereferenceable(24) %0, ptr noundef nonnull align 8 dereferenceable(24) %1)
  br i1 %20, label %_ZStltIJRKN3net9IPAddressERKtEJS3_S5_EEbRKSt5tupleIJDpT_EERKS6_IJDpT0_EE.exit, label %21

21:                                               ; preds = %17
  %22 = tail call noundef zeroext i1 @_ZNK3net9IPAddressltERKS0_(ptr noundef nonnull align 8 dereferenceable(24) %1, ptr noundef nonnull align 8 dereferenceable(24) %0)
  br i1 %22, label %_ZStltIJRKN3net9IPAddressERKtEJS3_S5_EEbRKSt5tupleIJDpT_EERKS6_IJDpT0_EE.exit, label %23

23:                                               ; preds = %21
  %24 = load i16, ptr %18, align 8, !tbaa !29
  %25 = load i16, ptr %19, align 8, !tbaa !29
  %26 = icmp ult i16 %24, %25
  br label %_ZStltIJRKN3net9IPAddressERKtEJS3_S5_EEbRKSt5tupleIJDpT_EERKS6_IJDpT0_EE.exit

_ZStltIJRKN3net9IPAddressERKtEJS3_S5_EEbRKSt5tupleIJDpT_EERKS6_IJDpT0_EE.exit: ; preds = %23, %21, %17, %15
  %.0 = phi i1 [ %16, %15 ], [ true, %17 ], [ false, %21 ], [ %26, %23 ]
  ret i1 %.0
}